; Function Attrs: mustprogress nounwind uwtable
define dso_local void @_ZNK5clang6driver11MultilibSet4dumpEv(ptr nocapture noundef nonnull readonly align 8 dereferenceable(112) %0) local_unnamed_addr #0 align 2 {
  %2 = tail call noundef nonnull align 8 dereferenceable(96) ptr @_ZN4llvm4errsEv() #17
  %3 = load ptr, ptr %0, align 8
  %4 = getelementptr inbounds nuw i8, ptr %0, i64 8
  %5 = load ptr, ptr %4, align 8
  %.not8.i = icmp eq ptr %3, %5
  br i1 %.not8.i, label %_ZNK5clang6driver11MultilibSet5printERN4llvm11raw_ostreamE.exit, label %.lr.ph.i

.lr.ph.i:                                         ; preds = %1
  %6 = getelementptr inbounds nuw i8, ptr %2, i64 24
  %7 = getelementptr inbounds nuw i8, ptr %2, i64 32
  br label %8

8:                                                ; preds = %_ZN4llvm11raw_ostreamlsEPKc.exit.i, %.lr.ph.i
  %.sroa.05.09.i = phi ptr [ %3, %.lr.ph.i ], [ %17, %_ZN4llvm11raw_ostreamlsEPKc.exit.i ]
  tail call void @_ZNK5clang6driver8Multilib5printERN4llvm11raw_ostreamE(ptr noundef nonnull align 8 dereferenceable(192) %.sroa.05.09.i, ptr noundef nonnull align 8 dereferenceable(48) %2)
  %9 = load ptr, ptr %6, align 8
  %10 = load ptr, ptr %7, align 8
  %11 = icmp eq ptr %9, %10
  br i1 %11, label %12, label %14

12:                                               ; preds = %8
  %13 = tail call noundef nonnull align 8 dereferenceable(48) ptr @_ZN4llvm11raw_ostream5writeEPKcm(ptr noundef nonnull align 8 dereferenceable(48) %2, ptr noundef nonnull @.str.7, i64 noundef 1) #17
  br label %_ZN4llvm11raw_ostreamlsEPKc.exit.i

14:                                               ; preds = %8
  store i8 10, ptr %10, align 1
  %15 = load ptr, ptr %7, align 8
  %16 = getelementptr inbounds i8, ptr %15, i64 1
  store ptr %16, ptr %7, align 8
  br label %_ZN4llvm11raw_ostreamlsEPKc.exit.i

_ZN4llvm11raw_ostreamlsEPKc.exit.i:               ; preds = %14, %12
  %17 = getelementptr inbounds i8, ptr %.sroa.05.09.i, i64 192
  %.not.i = icmp eq ptr %17, %5
  br i1 %.not.i, label %_ZNK5clang6driver11MultilibSet5printERN4llvm11raw_ostreamE.exit, label %8

_ZNK5clang6driver11MultilibSet5printERN4llvm11raw_ostreamE.exit: ; preds = %_ZN4llvm11raw_ostreamlsEPKc.exit.i, %1
  ret void
}